; Function Attrs: nounwind uwtable
define i32 @wolfSSL_connect_cert(ptr noundef %0) local_unnamed_addr #0 {
  %2 = icmp eq ptr %0, null
  br i1 %2, label %10, label %3

3:                                                ; preds = %1
  %4 = getelementptr inbounds nuw i8, ptr %0, i64 1024
  %5 = load i64, ptr %4, align 8
  %6 = or i64 %5, 68719476736
  store i64 %6, ptr %4, align 8
  %7 = tail call i32 @wolfSSL_connect(ptr noundef nonnull %0)
  %8 = load i64, ptr %4, align 8
  %9 = and i64 %8, -68719476737
  store i64 %9, ptr %4, align 8
  br label %10

10:                                               ; preds = %1, %3
  %.0 = phi i32 [ %7, %3 ], [ 0, %1 ]
  ret i32 %.0
}